target datalayout = "e-m:e-p270:32:32-p271:32:32-p272:64:64-i64:64-i128:128-f80:128-n8:16:32:64-S128"
target triple = "x86_64-pc-linux-gnu"

%struct.lg4ff_device = type { i16, i16, [16 x %struct.lg4ff_effect_state], [4 x %struct.lg4ff_slot], i32, i32, i32, i32, i32, i32, i32, ptr, i8, ptr, [256 x i8], ptr, i8 }
%struct.lg4ff_effect_state = type { %union.SDL_HapticEffect, i64, i64, i64, i32, i64, i64, i32, i32, i32, double, i32, i8 }
%union.SDL_HapticEffect = type { %struct.SDL_HapticCustom, [16 x i8] }
%struct.SDL_HapticCustom = type { i16, %struct.SDL_HapticDirection, i32, i16, i16, i16, i8, i16, i16, ptr, i16, i16, i16, i16 }
%struct.SDL_HapticDirection = type { i8, [3 x i32] }
%struct.lg4ff_slot = type { i32, %struct.lg4ff_effect_parameters, [7 x i8], i32, i8, i32 }
%struct.lg4ff_effect_parameters = type { i32, i32, i32, i32, i32, i32 }
%struct.SDL_HIDAPI_HapticDevice = type { ptr, ptr, ptr, ptr }
%struct.SDL_HapticPeriodic = type { i16, %struct.SDL_HapticDirection, i32, i16, i16, i16, i16, i16, i16, i16, i16, i16, i16, i16 }

@.str.10 = private unnamed_addr constant [14 x i8] c"Bad effect id\00", align 1

; Function Attrs: inlinehint nounwind uwtable
define internal zeroext i1 @effect_is_periodic(ptr noundef %0) #5 {
  %2 = alloca ptr, align 8
  store ptr %0, ptr %2, align 8
  %3 = load ptr, ptr %2, align 8
  %4 = load i16, ptr %3, align 8
  %5 = zext i16 %4 to i32
  %6 = icmp eq i32 %5, 2
  br i1 %6, label %27, label %7

7:                                                ; preds = %1
  %8 = load ptr, ptr %2, align 8
  %9 = load i16, ptr %8, align 8
  %10 = zext i16 %9 to i32
  %11 = icmp eq i32 %10, 8
  br i1 %11, label %27, label %12

12:                                               ; preds = %7
  %13 = load ptr, ptr %2, align 8
  %14 = load i16, ptr %13, align 8
  %15 = zext i16 %14 to i32
  %16 = icmp eq i32 %15, 16
  br i1 %16, label %27, label %17

17:                                               ; preds = %12
  %18 = load ptr, ptr %2, align 8
  %19 = load i16, ptr %18, align 8
  %20 = zext i16 %19 to i32
  %21 = icmp eq i32 %20, 32
  br i1 %21, label %27, label %22

22:                                               ; preds = %17
  %23 = load ptr, ptr %2, align 8
  %24 = load i16, ptr %23, align 8
  %25 = zext i16 %24 to i32
  %26 = icmp eq i32 %25, 4
  br label %27

27:                                               ; preds = %22, %17, %12, %7, %1
  %28 = phi i1 [ true, %17 ], [ true, %12 ], [ true, %7 ], [ true, %1 ], [ %26, %22 ]
  ret i1 %28
}

; Function Attrs: inlinehint nounwind uwtable
define internal i64 @get_time_ms() #5 {
  %1 = call i64 @SDL_GetTicks_REAL()
  ret i64 %1
}

; Function Attrs: nounwind uwtable
define internal i32 @lg4ff_upload_effect(ptr noundef %0, ptr noundef %1, i32 noundef %2) #0 {
  %4 = alloca i32, align 4
  %5 = alloca ptr, align 8
  %6 = alloca ptr, align 8
  %7 = alloca i32, align 4
  %8 = alloca ptr, align 8
  %9 = alloca i64, align 8
  %10 = alloca i32, align 4
  store ptr %0, ptr %5, align 8
  store ptr %1, ptr %6, align 8
  store i32 %2, ptr %7, align 4
  call void @llvm.lifetime.start.p0(i64 8, ptr %8) #6
  call void @llvm.lifetime.start.p0(i64 8, ptr %9) #6
  %11 = call i64 @get_time_ms()
  store i64 %11, ptr %9, align 8
  %12 = load ptr, ptr %6, align 8
  %13 = call zeroext i1 @effect_is_periodic(ptr noundef %12)
  br i1 %13, label %14, label %21

14:                                               ; preds = %3
  %15 = load ptr, ptr %6, align 8
  %16 = getelementptr inbounds nuw %struct.SDL_HapticPeriodic, ptr %15, i32 0, i32 6
  %17 = load i16, ptr %16, align 2
  %18 = zext i16 %17 to i32
  %19 = icmp eq i32 %18, 0
  br i1 %19, label %20, label %21

20:                                               ; preds = %14
  store i32 -1, ptr %4, align 4
  store i32 1, ptr %10, align 4
  br label %62

21:                                               ; preds = %14, %3
  %22 = load ptr, ptr %5, align 8
  %23 = getelementptr inbounds nuw %struct.lg4ff_device, ptr %22, i32 0, i32 2
  %24 = load i32, ptr %7, align 4
  %25 = sext i32 %24 to i64
  %26 = getelementptr inbounds [16 x %struct.lg4ff_effect_state], ptr %23, i64 0, i64 %25
  store ptr %26, ptr %8, align 8
  %27 = load ptr, ptr %8, align 8
  %28 = getelementptr inbounds nuw %struct.lg4ff_effect_state, ptr %27, i32 0, i32 4
  %29 = load i32, ptr %28, align 8
  %30 = and i32 %29, 1
  %31 = icmp ne i32 %30, 0
  br i1 %31, label %32, label %42

32:                                               ; preds = %21
  %33 = load ptr, ptr %6, align 8
  %34 = load i16, ptr %33, align 8
  %35 = zext i16 %34 to i32
  %36 = load ptr, ptr %8, align 8
  %37 = getelementptr inbounds nuw %struct.lg4ff_effect_state, ptr %36, i32 0, i32 0
  %38 = load i16, ptr %37, align 8
  %39 = zext i16 %38 to i32
  %40 = icmp ne i32 %35, %39
  br i1 %40, label %41, label %42

41:                                               ; preds = %32
  store i32 -1, ptr %4, align 4
  store i32 1, ptr %10, align 4
  br label %62

42:                                               ; preds = %32, %21
  %43 = load ptr, ptr %8, align 8
  %44 = getelementptr inbounds nuw %struct.lg4ff_effect_state, ptr %43, i32 0, i32 0
  %45 = load ptr, ptr %6, align 8
  call void @llvm.memcpy.p0.p0.i64(ptr align 8 %44, ptr align 8 %45, i64 72, i1 false)
  %46 = load ptr, ptr %8, align 8
  %47 = getelementptr inbounds nuw %struct.lg4ff_effect_state, ptr %46, i32 0, i32 4
  %48 = load i32, ptr %47, align 8
  %49 = and i32 %48, 1
  %50 = icmp ne i32 %49, 0
  br i1 %50, label %51, label %61

51:                                               ; preds = %42
  %52 = load ptr, ptr %8, align 8
  %53 = getelementptr inbounds nuw %struct.lg4ff_effect_state, ptr %52, i32 0, i32 4
  %54 = load i32, ptr %53, align 8
  %55 = or i32 %54, 8
  %56 = load ptr, ptr %8, align 8
  %57 = getelementptr inbounds nuw %struct.lg4ff_effect_state, ptr %56, i32 0, i32 4
  store i32 %55, ptr %57, align 8
  %58 = load i64, ptr %9, align 8
  %59 = load ptr, ptr %8, align 8
  %60 = getelementptr inbounds nuw %struct.lg4ff_effect_state, ptr %59, i32 0, i32 6
  store i64 %58, ptr %60, align 8
  br label %61

61:                                               ; preds = %51, %42
  store i32 0, ptr %4, align 4
  store i32 1, ptr %10, align 4
  br label %62

62:                                               ; preds = %61, %41, %20
  call void @llvm.lifetime.end.p0(i64 8, ptr %9) #6
  call void @llvm.lifetime.end.p0(i64 8, ptr %8) #6
  %63 = load i32, ptr %4, align 4
  ret i32 %63
}

; Function Attrs: nounwind uwtable
define internal zeroext i1 @lg4ff_effect_slot_valid_active(ptr noundef %0, i32 noundef %1) #0 {
  %3 = alloca i1, align 1
  %4 = alloca ptr, align 8
  %5 = alloca i32, align 4
  store ptr %0, ptr %4, align 8
  store i32 %1, ptr %5, align 4
  %6 = load i32, ptr %5, align 4
  %7 = icmp sge i32 %6, 16
  br i1 %7, label %11, label %8

8:                                                ; preds = %2
  %9 = load i32, ptr %5, align 4
  %10 = icmp slt i32 %9, 0
  br i1 %10, label %11, label %12

11:                                               ; preds = %8, %2
  store i1 false, ptr %3, align 1
  br label %23

12:                                               ; preds = %8
  %13 = load ptr, ptr %4, align 8
  %14 = getelementptr inbounds nuw %struct.lg4ff_device, ptr %13, i32 0, i32 2
  %15 = load i32, ptr %5, align 4
  %16 = sext i32 %15 to i64
  %17 = getelementptr inbounds [16 x %struct.lg4ff_effect_state], ptr %14, i64 0, i64 %16
  %18 = getelementptr inbounds nuw %struct.lg4ff_effect_state, ptr %17, i32 0, i32 12
  %19 = load i8, ptr %18, align 4, !range !5, !noundef !6
  %20 = trunc i8 %19 to i1
  br i1 %20, label %22, label %21

21:                                               ; preds = %12
  store i1 false, ptr %3, align 1
  br label %23

22:                                               ; preds = %12
  store i1 true, ptr %3, align 1
  br label %23

23:                                               ; preds = %22, %21, %11
  %24 = load i1, ptr %3, align 1
  ret i1 %24
}

; Function Attrs: nounwind uwtable
define internal zeroext i1 @SDL_HIDAPI_HapticDriverLg4ff_UpdateEffect(ptr noundef %0, i32 noundef %1, ptr noundef %2) #0 {
  %4 = alloca i1, align 1
  %5 = alloca ptr, align 8
  %6 = alloca i32, align 4
  %7 = alloca ptr, align 8
  %8 = alloca ptr, align 8
  %9 = alloca i32, align 4
  %10 = alloca i32, align 4
  store ptr %0, ptr %5, align 8
  store i32 %1, ptr %6, align 4
  store ptr %2, ptr %7, align 8
  call void @llvm.lifetime.start.p0(i64 8, ptr %8) #6
  %11 = load ptr, ptr %5, align 8
  %12 = getelementptr inbounds nuw %struct.SDL_HIDAPI_HapticDevice, ptr %11, i32 0, i32 3
  %13 = load ptr, ptr %12, align 8
  store ptr %13, ptr %8, align 8
  call void @llvm.lifetime.start.p0(i64 4, ptr %9) #6
  %14 = load ptr, ptr %8, align 8
  %15 = getelementptr inbounds nuw %struct.lg4ff_device, ptr %14, i32 0, i32 15
  %16 = load ptr, ptr %15, align 8
  call void @SDL_LockMutex_REAL(ptr noundef %16)
  %17 = load ptr, ptr %8, align 8
  %18 = load i32, ptr %6, align 4
  %19 = call zeroext i1 @lg4ff_effect_slot_valid_active(ptr noundef %17, i32 noundef %18)
  br i1 %19, label %25, label %20

20:                                               ; preds = %3
  %21 = load ptr, ptr %8, align 8
  %22 = getelementptr inbounds nuw %struct.lg4ff_device, ptr %21, i32 0, i32 15
  %23 = load ptr, ptr %22, align 8
  call void @SDL_UnlockMutex_REAL(ptr noundef %23)
  %24 = call zeroext i1 (ptr, ...) @SDL_SetError_REAL(ptr noundef @.str.10)
  store i1 false, ptr %4, align 1
  store i32 1, ptr %10, align 4
  br label %35

25:                                               ; preds = %3
  %26 = load ptr, ptr %8, align 8
  %27 = load ptr, ptr %7, align 8
  %28 = load i32, ptr %6, align 4
  %29 = call i32 @lg4ff_upload_effect(ptr noundef %26, ptr noundef %27, i32 noundef %28)
  store i32 %29, ptr %9, align 4
  %30 = load ptr, ptr %8, align 8
  %31 = getelementptr inbounds nuw %struct.lg4ff_device, ptr %30, i32 0, i32 15
  %32 = load ptr, ptr %31, align 8
  call void @SDL_UnlockMutex_REAL(ptr noundef %32)
  %33 = load i32, ptr %9, align 4
  %34 = icmp eq i32 %33, 0
  store i1 %34, ptr %4, align 1
  store i32 1, ptr %10, align 4
  br label %35

35:                                               ; preds = %25, %20
  call void @llvm.lifetime.end.p0(i64 4, ptr %9) #6
  call void @llvm.lifetime.end.p0(i64 8, ptr %8) #6
  %36 = load i1, ptr %4, align 1
  ret i1 %36
}