; Function Attrs: nounwind uwtable
define internal noundef zeroext i1 @SDL_HIDAPI_HapticDriverLg4ff_UpdateEffect(ptr noundef readonly captures(none) %0, i32 noundef %1, ptr noundef readonly captures(none) %2) #0 {
  %4 = getelementptr inbounds nuw i8, ptr %0, i64 24
  %5 = load ptr, ptr %4, align 8
  %6 = getelementptr inbounds nuw i8, ptr %5, i64 2944
  %7 = load ptr, ptr %6, align 8
  tail call void @SDL_LockMutex_REAL(ptr noundef %7) #8
  %or.cond.i = icmp ugt i32 %1, 15
  br i1 %or.cond.i, label %lg4ff_effect_slot_valid_active.exit.thread, label %lg4ff_effect_slot_valid_active.exit

lg4ff_effect_slot_valid_active.exit:              ; preds = %3
  %8 = getelementptr inbounds nuw i8, ptr %5, i64 8
  %narrow.i = mul nuw nsw i32 %1, 152
  %9 = zext nneg i32 %narrow.i to i64
  %10 = getelementptr inbounds nuw i8, ptr %8, i64 %9
  %11 = getelementptr inbounds nuw i8, ptr %10, i64 148
  %12 = load i8, ptr %11, align 4, !range !7, !noundef !8
  %13 = trunc nuw i8 %12 to i1
  br i1 %13, label %16, label %lg4ff_effect_slot_valid_active.exit.thread

lg4ff_effect_slot_valid_active.exit.thread:       ; preds = %3, %lg4ff_effect_slot_valid_active.exit
  %14 = load ptr, ptr %6, align 8
  tail call void @SDL_UnlockMutex_REAL(ptr noundef %14) #8
  %15 = tail call zeroext i1 (ptr, ...) @SDL_SetError_REAL(ptr noundef nonnull @.str.10) #8
  br label %34

16:                                               ; preds = %lg4ff_effect_slot_valid_active.exit
  %17 = tail call i64 @SDL_GetTicks_REAL() #8
  %.val.i = load i16, ptr %2, align 8
  switch i16 %.val.i, label %effect_is_periodic.exit.i [
    i16 2, label %18
    i16 8, label %18
    i16 16, label %18
    i16 32, label %18
    i16 4, label %18
  ]

18:                                               ; preds = %16, %16, %16, %16, %16
  %19 = getelementptr inbounds nuw i8, ptr %2, i64 30
  %20 = load i16, ptr %19, align 2
  %21 = icmp eq i16 %20, 0
  br i1 %21, label %lg4ff_upload_effect.exit, label %effect_is_periodic.exit.i

effect_is_periodic.exit.i:                        ; preds = %18, %16
  %22 = zext nneg i32 %1 to i64
  %23 = getelementptr inbounds nuw [16 x %struct.lg4ff_effect_state], ptr %8, i64 0, i64 %22
  %24 = getelementptr inbounds nuw i8, ptr %23, i64 96
  %25 = load i32, ptr %24, align 8
  %26 = and i32 %25, 1
  %.not.i = icmp eq i32 %26, 0
  br i1 %.not.i, label %.thread.i, label %27

.thread.i:                                        ; preds = %effect_is_periodic.exit.i
  tail call void @llvm.memcpy.p0.p0.i64(ptr noundef nonnull align 8 dereferenceable(72) %23, ptr noundef nonnull readonly align 8 dereferenceable(72) %2, i64 72, i1 false)
  br label %lg4ff_upload_effect.exit

27:                                               ; preds = %effect_is_periodic.exit.i
  %28 = load i16, ptr %23, align 8
  %.not14.i = icmp eq i16 %.val.i, %28
  br i1 %.not14.i, label %29, label %lg4ff_upload_effect.exit

29:                                               ; preds = %27
  tail call void @llvm.memcpy.p0.p0.i64(ptr noundef nonnull align 8 dereferenceable(72) %23, ptr noundef nonnull readonly align 8 dereferenceable(72) %2, i64 72, i1 false)
  %30 = or i32 %25, 8
  store i32 %30, ptr %24, align 8
  %31 = getelementptr inbounds nuw i8, ptr %23, i64 112
  store i64 %17, ptr %31, align 8
  br label %lg4ff_upload_effect.exit

lg4ff_upload_effect.exit:                         ; preds = %18, %.thread.i, %27, %29
  %32 = phi i1 [ false, %18 ], [ false, %27 ], [ true, %29 ], [ true, %.thread.i ]
  %33 = load ptr, ptr %6, align 8
  tail call void @SDL_UnlockMutex_REAL(ptr noundef %33) #8
  br label %34

34:                                               ; preds = %lg4ff_upload_effect.exit, %lg4ff_effect_slot_valid_active.exit.thread
  %.0 = phi i1 [ %32, %lg4ff_upload_effect.exit ], [ false, %lg4ff_effect_slot_valid_active.exit.thread ]
  ret i1 %.0
}